Certificate:
    Data:
        Version: 3 (0x2)
        Serial Number:
            be:88:15:6a:14:bc:2d:be
        Signature Algorithm: sha1WithRSAEncryption
        Issuer: C=US, ST=Massachusetts, O=Black Duck Software, Inc., CN=KeyStore Test Root CA
        Validity
            Not Before: May 24 18:31:20 2016 GMT
            Not After : Jun 11 18:31:20 2084 GMT
        Subject: C=US, ST=Massachusetts, O=Black Duck Software, Inc., CN=sysadmin
        Subject Public Key Info:
            Public Key Algorithm: rsaEncryption
            RSA Public Key: (1024 bit)
                Modulus (1024 bit):
                    00:d1:97:84:63:2e:ef:10:93:13:66:6c:bd:4c:f6:
                    30:3a:58:13:42:b7:ad:3a:3c:f3:96:81:2a:e3:e7:
                    6a:31:cb:9a:fa:83:d7:31:41:c4:54:eb:c6:91:d2:
                    19:b5:e7:f6:95:cc:0b:07:79:9a:00:ea:ee:df:41:
                    52:e9:d6:6c:17:a6:4c:28:2d:f2:60:ad:c7:12:24:
                    46:ef:2b:39:08:94:14:89:68:5d:7c:11:a2:bd:1b:
                    4f:72:8b:37:59:c5:dd:ab:54:8d:4e:4c:7c:f0:f8:
                    91:b5:d3:a2:f3:b4:cb:75:a9:06:f5:e4:16:75:36:
                    c4:0a:34:f6:ed:1e:02:16:b9
                Exponent: 65537 (0x10001)
        X509v3 extensions:
            X509v3 Basic Constraints: 
                CA:FALSE
            Netscape Cert Type: 
                SSL Client, S/MIME
            X509v3 Key Usage: 
                Digital Signature, Non Repudiation, Key Encipherment
            X509v3 Subject Key Identifier: 
                3E:38:9B:4F:00:30:E7:A0:C1:CE:CE:87:9A:86:A6:D4:27:99:46:91
            X509v3 Authority Key Identifier: 
                keyid:6F:5D:E7:EC:86:AB:9D:7C:AD:D5:29:26:A8:FE:73:52:6E:4D:59:83

            X509v3 Subject Alternative Name: 
                email:noreply@blackducksoftware.com
    Signature Algorithm: sha1WithRSAEncryption
        6c:d6:9b:3e:e4:74:73:76:ad:26:11:ff:f4:4f:e6:87:dc:76:
        ea:e5:b3:bd:2c:18:b1:6f:1f:a0:36:2d:2a:73:5a:3c:4c:9b:
        00:69:40:16:14:55:80:0d:19:c6:c1:da:f3:7d:88:89:36:93:
        36:af:da:c9:40:ea:5d:d0:c9:4d:4f:fa:d6:a6:b2:91:4a:d0:
        ba:07:c5:6b:ae:4a:f7:ae:e9:31:fd:7f:7a:8d:96:52:d1:b5:
        fc:7e:15:f9:20:1c:b8:98:dd:9f:92:dc:d1:ac:73:1f:f7:22:
        23:32:b1:df:bd:ba:17:0d:5f:06:52:3b:ad:de:ef:ee:36:b4:
        8e:c3
-----BEGIN CERTIFICATE-----
MIIC3jCCAkegAwIBAgIJAL6IFWoUvC2+MA0GCSqGSIb3DQEBBQUAMGkxCzAJBgNV
BAYTAlVTMRYwFAYDVQQIDA1NYXNzYWNodXNldHRzMSIwIAYDVQQKDBlCbGFjayBE
dWNrIFNvZnR3YXJlLCBJbmMuMR4wHAYDVQQDDBVLZXlTdG9yZSBUZXN0IFJvb3Qg
Q0EwIBcNMTYwNTI0MTgzMTIwWhgPMjA4NDA2MTExODMxMjBaMFwxCzAJBgNVBAYT
AlVTMRYwFAYDVQQIDA1NYXNzYWNodXNldHRzMSIwIAYDVQQKDBlCbGFjayBEdWNr
IFNvZnR3YXJlLCBJbmMuMREwDwYDVQQDDAhzeXNhZG1pbjCBnzANBgkqhkiG9w0B
AQEFAAOBjQAwgYkCgYEA0ZeEYy7vEJMTZmy9TPYwOlgTQretOjzzloEq4+dqMcua
+oPXMUHEVOvGkdIZtef2lcwLB3maAOru30FS6dZsF6ZMKC3yYK3HEiRG7ys5CJQU
iWhdfBGivRtPcos3WcXdq1SNTkx88PiRtdOi87TLdakG9eQWdTbECjT27R4CFrkC
AwEAAaOBmDCBlTAJBgNVHRMEAjAAMBEGCWCGSAGG+EIBAQQEAwIFoDALBgNVHQ8E
BAMCBeAwHQYDVR0OBBYEFD44m08AMOegwc7Oh5qGptQnmUaRMB8GA1UdIwQYMBaA
FG9d5+yGq518rdUpJqj+c1JuTVmDMCgGA1UdEQQhMB+BHW5vcmVwbHlAYmxhY2tk
dWNrc29mdHdhcmUuY29tMA0GCSqGSIb3DQEBBQUAA4GBAGzWmz7kdHN2rSYR//RP
5ofcdurls70sGLFvH6A2LSpzWjxMmwBpQBYUVYANGcbB2vN9iIk2kzav2slA6l3Q
yU1P+tamspFK0LoHxWuuSveu6TH9f3qNllLRtfx+FfkgHLiY3Z+S3NGscx/3IiMy
sd+9uhcNXwZSO63e7+42tI7D
-----END CERTIFICATE-----
